target datalayout = "e-m:e-p270:32:32-p271:32:32-p272:64:64-i64:64-i128:128-f80:128-n8:16:32:64-S128"
target triple = "x86_64-unknown-linux-gnu"

%"class.sat::constraint_base" = type { ptr, [0 x i32] }
%"class.euf::constraint" = type { i32, ptr }

; Function Attrs: mustprogress nounwind uwtable
define linkonce_odr hidden noundef i64 @_ZN3sat15constraint_base8ext_sizeEv() #4 comdat align 2 {
entry:
  ret i64 8
}

; Function Attrs: mustprogress nounwind uwtable
define linkonce_odr hidden void @_ZN3sat15constraint_base10initializeEPvPNS_9extensionE(ptr noundef %ptr, ptr noundef %ext) #4 comdat align 2 {
entry:
  %ptr.addr = alloca ptr, align 8
  %ext.addr = alloca ptr, align 8
  store ptr %ptr, ptr %ptr.addr, align 8
  store ptr %ext, ptr %ext.addr, align 8
  %0 = load ptr, ptr %ext.addr, align 8
  %1 = load ptr, ptr %ptr.addr, align 8
  %m_ex = getelementptr inbounds %"class.sat::constraint_base", ptr %1, i32 0, i32 0
  store ptr %0, ptr %m_ex, align 8
  ret void
}

; Function Attrs: mustprogress nounwind uwtable
define linkonce_odr hidden void @_ZN3euf10constraintC2ENS0_6kind_tE(ptr noundef nonnull align 8 dereferenceable(16) %this, i32 noundef %k) unnamed_addr #4 comdat align 2 {
entry:
  %this.addr = alloca ptr, align 8
  %k.addr = alloca i32, align 4
  store ptr %this, ptr %this.addr, align 8
  store i32 %k, ptr %k.addr, align 4
  %this1 = load ptr, ptr %this.addr, align 8
  %m_kind = getelementptr inbounds %"class.euf::constraint", ptr %this1, i32 0, i32 0
  %0 = load i32, ptr %k.addr, align 4
  store i32 %0, ptr %m_kind, align 8
  %m_node = getelementptr inbounds %"class.euf::constraint", ptr %this1, i32 0, i32 1
  store ptr null, ptr %m_node, align 8
  ret void
}

; Function Attrs: mustprogress nounwind uwtable
define linkonce_odr hidden noundef ptr @_ZN3sat15constraint_base7ptr2memEPv(ptr noundef %ptr) #4 comdat align 2 {
entry:
  %ptr.addr = alloca ptr, align 8
  store ptr %ptr, ptr %ptr.addr, align 8
  %0 = load ptr, ptr %ptr.addr, align 8
  %call = call noundef i64 @_ZN3sat15constraint_base8ext_sizeEv()
  %add.ptr = getelementptr inbounds i8, ptr %0, i64 %call
  ret ptr %add.ptr
}

; Function Attrs: mustprogress nounwind uwtable
define linkonce_odr hidden noundef i64 @_ZN3sat15constraint_base8obj_sizeEm(i64 noundef %sz) #4 comdat align 2 {
entry:
  %sz.addr = alloca i64, align 8
  store i64 %sz, ptr %sz.addr, align 8
  %call = call noundef i64 @_ZN3sat15constraint_base8ext_sizeEv()
  %0 = load i64, ptr %sz.addr, align 8
  %add = add i64 %call, %0
  ret i64 %add
}

; Function Attrs: mustprogress uwtable
define hidden noundef nonnull align 8 dereferenceable(16) ptr @_ZN3euf6solver13mk_constraintERPNS_10constraintENS1_6kind_tE(ptr noundef nonnull align 8 dereferenceable(9136) %this, ptr noundef nonnull align 8 dereferenceable(8) %c, i32 noundef %k) #5 align 2 {
entry:
  %this.addr = alloca ptr, align 8
  %c.addr = alloca ptr, align 8
  %k.addr = alloca i32, align 4
  %mem = alloca ptr, align 8
  store ptr %this, ptr %this.addr, align 8
  store ptr %c, ptr %c.addr, align 8
  store i32 %k, ptr %k.addr, align 4
  %this1 = load ptr, ptr %this.addr, align 8
  %0 = load ptr, ptr %c.addr, align 8
  %1 = load ptr, ptr %0, align 8
  %tobool = icmp ne ptr %1, null
  br i1 %tobool, label %if.end, label %if.then

if.then:                                          ; preds = %entry
  %call = call noundef i64 @_ZN3sat15constraint_base8obj_sizeEm(i64 noundef 16)
  %call2 = call noalias noundef ptr @_ZN6memory8allocateEm(i64 noundef %call)
  store ptr %call2, ptr %mem, align 8
  %2 = load ptr, ptr %mem, align 8
  %call3 = call noundef ptr @_ZN3sat15constraint_base7ptr2memEPv(ptr noundef %2)
  %3 = load i32, ptr %k.addr, align 4
  call void @_ZN3euf10constraintC2ENS0_6kind_tE(ptr noundef nonnull align 8 dereferenceable(16) %call3, i32 noundef %3)
  %4 = load ptr, ptr %c.addr, align 8
  store ptr %call3, ptr %4, align 8
  %5 = load ptr, ptr %mem, align 8
  call void @_ZN3sat15constraint_base10initializeEPvPNS_9extensionE(ptr noundef %5, ptr noundef %this1)
  br label %if.end

if.end:                                           ; preds = %if.then, %entry
  %6 = load ptr, ptr %c.addr, align 8
  %7 = load ptr, ptr %6, align 8
  ret ptr %7
}