; Function Attrs: mustprogress uwtable
define hidden noundef nonnull align 8 dereferenceable(16) ptr @_ZN3euf6solver13mk_constraintERPNS_10constraintENS1_6kind_tE(ptr noundef nonnull align 8 dereferenceable(9136) %this, ptr nocapture noundef nonnull align 8 dereferenceable(8) %c, i32 noundef %k) local_unnamed_addr #3 align 2 {
entry:
  %0 = load ptr, ptr %c, align 8
  %tobool.not = icmp eq ptr %0, null
  br i1 %tobool.not, label %if.then, label %if.end

if.then:                                          ; preds = %entry
  %call2 = tail call noalias noundef ptr @_ZN6memory8allocateEm(i64 noundef 24)
  %add.ptr.i = getelementptr inbounds i8, ptr %call2, i64 8
  store i32 %k, ptr %add.ptr.i, align 8
  %m_node.i = getelementptr inbounds i8, ptr %call2, i64 16
  store ptr null, ptr %m_node.i, align 8
  store ptr %add.ptr.i, ptr %c, align 8
  store ptr %this, ptr %call2, align 8
  br label %if.end

if.end:                                           ; preds = %if.then, %entry
  %1 = phi ptr [ %add.ptr.i, %if.then ], [ %0, %entry ]
  ret ptr %1
}